; Function Attrs: mustprogress uwtable
define void @_ZNK5Ipopt13ZeroSymMatrix9PrintImplERKNS_10JournalistENS_13EJournalLevelENS_16EJournalCategoryERKNSt7__cxx1112basic_stringIcSt11char_traitsIcESaIcEEEiSD_(ptr nocapture noundef nonnull readonly align 8 dereferenceable(80) %0, ptr noundef nonnull align 8 dereferenceable(40) %1, i32 noundef %2, i32 noundef %3, ptr noundef nonnull align 8 dereferenceable(32) %4, i32 noundef %5, ptr noundef nonnull align 8 dereferenceable(32) %6) unnamed_addr #0 align 2 {
  %8 = load ptr, ptr %1, align 8
  %9 = getelementptr inbounds i8, ptr %8, i64 16
  %10 = load ptr, ptr %9, align 8
  tail call void (ptr, i32, i32, ptr, ...) %10(ptr noundef nonnull align 8 dereferenceable(40) %1, i32 noundef %2, i32 noundef %3, ptr noundef nonnull @.str)
  %11 = tail call noundef ptr @_ZNKSt7__cxx1112basic_stringIcSt11char_traitsIcESaIcEE5c_strEv(ptr noundef nonnull align 8 dereferenceable(32) %6) #9
  %12 = tail call noundef ptr @_ZNKSt7__cxx1112basic_stringIcSt11char_traitsIcESaIcEE5c_strEv(ptr noundef nonnull align 8 dereferenceable(32) %4) #9
  %13 = getelementptr inbounds i8, ptr %0, i64 56
  %14 = load ptr, ptr %13, align 8
  %15 = getelementptr inbounds i8, ptr %14, i64 12
  %16 = load i32, ptr %15, align 4
  %17 = getelementptr inbounds i8, ptr %14, i64 16
  %18 = load i32, ptr %17, align 8
  %19 = load ptr, ptr %1, align 8
  %20 = getelementptr inbounds i8, ptr %19, i64 32
  %21 = load ptr, ptr %20, align 8
  tail call void (ptr, i32, i32, i32, ptr, ...) %21(ptr noundef nonnull align 8 dereferenceable(40) %1, i32 noundef %2, i32 noundef %3, i32 noundef %5, ptr noundef nonnull @.str.1, ptr noundef %11, ptr noundef %12, i32 noundef %16, i32 noundef %18)
  ret void
}